target datalayout = "e-m:e-p270:32:32-p271:32:32-p272:64:64-i64:64-i128:128-f80:128-n8:16:32:64-S128"
target triple = "x86_64-unknown-linux-gnu"

%"class.std::set.0" = type { %"class.std::_Rb_tree.1" }
%"class.std::_Rb_tree.1" = type { %"struct.std::_Rb_tree<QuantLib::Observer *, QuantLib::Observer *, std::_Identity<QuantLib::Observer *>, std::less<QuantLib::Observer *>>::_Rb_tree_impl" }
%"struct.std::_Rb_tree<QuantLib::Observer *, QuantLib::Observer *, std::_Identity<QuantLib::Observer *>, std::less<QuantLib::Observer *>>::_Rb_tree_impl" = type { [8 x i8], %"struct.std::_Rb_tree_header" }
%"struct.std::_Rb_tree_header" = type { %"struct.std::_Rb_tree_node_base", i64 }
%"struct.std::_Rb_tree_node_base" = type { i32, ptr, ptr, ptr }
%"class.std::set" = type { %"class.std::_Rb_tree" }
%"class.std::_Rb_tree" = type { %"struct.std::_Rb_tree<boost::shared_ptr<QuantLib::Observable>, boost::shared_ptr<QuantLib::Observable>, std::_Identity<boost::shared_ptr<QuantLib::Observable>>, std::less<boost::shared_ptr<QuantLib::Observable>>>::_Rb_tree_impl" }
%"struct.std::_Rb_tree<boost::shared_ptr<QuantLib::Observable>, boost::shared_ptr<QuantLib::Observable>, std::_Identity<boost::shared_ptr<QuantLib::Observable>>, std::less<boost::shared_ptr<QuantLib::Observable>>>::_Rb_tree_impl" = type { [8 x i8], %"struct.std::_Rb_tree_header" }
%"class.boost::detail::shared_count" = type { ptr }
%"class.QuantLib::Observable" = type { ptr, %"class.std::set.0" }
%"class.QuantLib::AtmAdjustedSmileSection" = type { %"class.QuantLib::SmileSection.base", %"class.boost::shared_ptr.19", double, double, %"class.QuantLib::Observable", %"class.QuantLib::Observer" }
%"class.QuantLib::SmileSection.base" = type { ptr, i8, %"class.QuantLib::Date", %"class.QuantLib::Date", %"class.QuantLib::DayCounter", double, i32, double }
%"class.QuantLib::Date" = type { i64 }
%"class.QuantLib::DayCounter" = type { %"class.boost::shared_ptr.18" }
%"class.boost::shared_ptr.18" = type { ptr, %"class.boost::detail::shared_count" }
%"class.boost::shared_ptr.19" = type { ptr, %"class.boost::detail::shared_count" }
%"class.QuantLib::Observer" = type { ptr, %"class.std::set" }

@.str.4 = private unnamed_addr constant [8 x i8] c"px != 0\00", align 1
@.str.5 = private unnamed_addr constant [102 x i8] c"generated/home/dtcxzyw/WorkSpace/SDK/vcpkg/installed/x64-linux/include/boost/smart_ptr/shared_ptr.hpp\00", align 1
@__PRETTY_FUNCTION__._ZNK5boost10shared_ptrIN8QuantLib12SmileSectionEEptEv = private unnamed_addr constant [141 x i8] c"typename boost::detail::sp_member_access<T>::type boost::shared_ptr<QuantLib::SmileSection>::operator->() const [T = QuantLib::SmileSection]\00", align 1

; Function Attrs: inlinehint mustprogress uwtable
define linkonce_odr noundef double @_ZNK8QuantLib12SmileSection8varianceEd(ptr noundef nonnull align 8 dereferenceable(72) %this, double noundef %strike) #4 comdat align 2 {
entry:
  %this.addr = alloca ptr, align 8
  %strike.addr = alloca double, align 8
  store ptr %this, ptr %this.addr, align 8, !tbaa !3
  store double %strike, ptr %strike.addr, align 8, !tbaa !14
  %this1 = load ptr, ptr %this.addr, align 8
  %0 = load double, ptr %strike.addr, align 8, !tbaa !14
  %vtable = load ptr, ptr %this1, align 8, !tbaa !12
  %vfn = getelementptr inbounds ptr, ptr %vtable, i64 17
  %1 = load ptr, ptr %vfn, align 8
  %call = call noundef double %1(ptr noundef nonnull align 8 dereferenceable(72) %this1, double noundef %0)
  ret double %call
}

; Function Attrs: mustprogress nounwind uwtable
define noundef double @_ZNK8QuantLib23AtmAdjustedSmileSection14adjustedStrikeEd(ptr noundef nonnull align 8 dereferenceable(104) %this, double noundef %strike) #1 align 2 {
entry:
  %this.addr = alloca ptr, align 8
  %strike.addr = alloca double, align 8
  store ptr %this, ptr %this.addr, align 8, !tbaa !3
  store double %strike, ptr %strike.addr, align 8, !tbaa !14
  %this1 = load ptr, ptr %this.addr, align 8
  %0 = load double, ptr %strike.addr, align 8, !tbaa !14
  %adjustment_ = getelementptr inbounds nuw %"class.QuantLib::AtmAdjustedSmileSection", ptr %this1, i32 0, i32 2
  %1 = load double, ptr %adjustment_, align 8, !tbaa !29
  %add = fadd double %0, %1
  ret double %add
}

; Function Attrs: mustprogress uwtable
define linkonce_odr noundef ptr @_ZNK5boost10shared_ptrIN8QuantLib12SmileSectionEEptEv(ptr noundef nonnull align 8 dereferenceable(16) %this) #2 comdat align 2 {
entry:
  %this.addr = alloca ptr, align 8
  store ptr %this, ptr %this.addr, align 8, !tbaa !3
  %this1 = load ptr, ptr %this.addr, align 8
  %px = getelementptr inbounds nuw %"class.boost::shared_ptr.19", ptr %this1, i32 0, i32 0
  %0 = load ptr, ptr %px, align 8, !tbaa !30
  %cmp = icmp ne ptr %0, null
  %lnot = xor i1 %cmp, true
  %lnot2 = xor i1 %lnot, true
  %conv = zext i1 %lnot2 to i64
  %expval = call i64 @llvm.expect.i64(i64 %conv, i64 1)
  %tobool = icmp ne i64 %expval, 0
  br i1 %tobool, label %cond.true, label %cond.false

cond.true:                                        ; preds = %entry
  br label %cond.end

cond.false:                                       ; preds = %entry
  call void @_ZN5boost16assertion_failedEPKcS1_S1_l(ptr noundef @.str.4, ptr noundef @__PRETTY_FUNCTION__._ZNK5boost10shared_ptrIN8QuantLib12SmileSectionEEptEv, ptr noundef @.str.5, i64 noundef 784)
  br label %cond.end

cond.end:                                         ; preds = %cond.false, %cond.true
  %px3 = getelementptr inbounds nuw %"class.boost::shared_ptr.19", ptr %this1, i32 0, i32 0
  %1 = load ptr, ptr %px3, align 8, !tbaa !30
  ret ptr %1
}

; Function Attrs: mustprogress uwtable
define noundef double @_ZNK8QuantLib23AtmAdjustedSmileSection12varianceImplEd(ptr noundef nonnull align 8 dereferenceable(104) %this, double noundef %strike) unnamed_addr #2 align 2 {
entry:
  %this.addr = alloca ptr, align 8
  %strike.addr = alloca double, align 8
  store ptr %this, ptr %this.addr, align 8, !tbaa !3
  store double %strike, ptr %strike.addr, align 8, !tbaa !14
  %this1 = load ptr, ptr %this.addr, align 8
  %source_ = getelementptr inbounds nuw %"class.QuantLib::AtmAdjustedSmileSection", ptr %this1, i32 0, i32 1
  %call = call noundef ptr @_ZNK5boost10shared_ptrIN8QuantLib12SmileSectionEEptEv(ptr noundef nonnull align 8 dereferenceable(16) %source_)
  %0 = load double, ptr %strike.addr, align 8, !tbaa !14
  %call2 = call noundef double @_ZNK8QuantLib23AtmAdjustedSmileSection14adjustedStrikeEd(ptr noundef nonnull align 8 dereferenceable(104) %this1, double noundef %0)
  %call3 = call noundef double @_ZNK8QuantLib12SmileSection8varianceEd(ptr noundef nonnull align 8 dereferenceable(72) %call, double noundef %call2)
  ret double %call3
}