; Function Attrs: mustprogress uwtable
define noundef double @_ZNK8QuantLib23AtmAdjustedSmileSection12varianceImplEd(ptr nocapture noundef nonnull readonly align 8 dereferenceable(104) %this, double noundef %strike) unnamed_addr #6 align 2 {
entry:
  %source_ = getelementptr inbounds nuw i8, ptr %this, i64 72
  %0 = load ptr, ptr %source_, align 8, !tbaa !39
  %cmp.not.i = icmp eq ptr %0, null
  br i1 %cmp.not.i, label %cond.false.i, label %_ZNK5boost10shared_ptrIN8QuantLib12SmileSectionEEptEv.exit, !prof !41

cond.false.i:                                     ; preds = %entry
  tail call void @_ZN5boost16assertion_failedEPKcS1_S1_l(ptr noundef nonnull @.str.4, ptr noundef nonnull @__PRETTY_FUNCTION__._ZNK5boost10shared_ptrIN8QuantLib12SmileSectionEEptEv, ptr noundef nonnull @.str.5, i64 noundef 784)
  %.pre.i = load ptr, ptr %source_, align 8, !tbaa !39
  br label %_ZNK5boost10shared_ptrIN8QuantLib12SmileSectionEEptEv.exit

_ZNK5boost10shared_ptrIN8QuantLib12SmileSectionEEptEv.exit: ; preds = %entry, %cond.false.i
  %1 = phi ptr [ %0, %entry ], [ %.pre.i, %cond.false.i ]
  %adjustment_.i = getelementptr inbounds nuw i8, ptr %this, i64 88
  %2 = load double, ptr %adjustment_.i, align 8, !tbaa !51
  %add.i = fadd double %strike, %2
  %vtable.i = load ptr, ptr %1, align 8, !tbaa !35
  %vfn.i = getelementptr inbounds i8, ptr %vtable.i, i64 136
  %3 = load ptr, ptr %vfn.i, align 8
  %call.i = tail call noundef double %3(ptr noundef nonnull align 8 dereferenceable(72) %1, double noundef %add.i)
  ret double %call.i
}